(lp1
S'/media/hdb5/Copy of My Documents/NTIrestore/Sengai Stuff/Documents and Settings/Sengi1/Start Menu/Programs/MetaCreations/KPT 6/KPT\xae 6 ReadMe.lnk'
p2
aS'/media/hdb5/Copy of My Documents/NTIrestore/Sengai Stuff/Documents and Settings/Sengi1/Start Menu/Programs/MetaCreations/KPT 6/KPT\xae 6 Technical Tips.lnk'
p3
aS'/media/hdb5/Copy of My Documents/NTIrestore/Sengai Stuff/Documents and Settings/Sengi1/Start Menu/Programs/MetaCreations/KPT 6/MetaCreations\xae Technical Support.lnk'
p4
aS'/media/hdb5/Copy of My Documents/NTIrestore/Sengai Stuff/Documents and Settings/Sengi1/Start Menu/Programs/MetaCreations/KPT 6/Uninstall KPT\xae 6.lnk'
p5
aS"/media/hdb5/Copy of My Documents/NTIrestore/Sengai Stuff/Documents and Settings/Sengi1/Start Menu/Programs/Kai's Power Tools 5/Kai's Power Tools\xae5 ReadMe.lnk"
p6
aS"/media/hdb5/Copy of My Documents/NTIrestore/Sengai Stuff/Documents and Settings/Sengi1/Start Menu/Programs/Kai's Power Tools 5/Uninstall Kai's Power Tools\xae5.lnk"
p7
aS'/media/hdb5/Copy of My Documents/NTIrestore/Sengai Stuff/Documents and Settings/Sengai/Start Menu/Programs/MetaCreations/KPT 6/KPT\xae 6 ReadMe.lnk'
p8
aS'/media/hdb5/Copy of My Documents/NTIrestore/Sengai Stuff/Documents and Settings/Sengai/Start Menu/Programs/MetaCreations/KPT 6/KPT\xae 6 Technical Tips.lnk'
p9
aS'/media/hdb5/Copy of My Documents/NTIrestore/Sengai Stuff/Documents and Settings/Sengai/Start Menu/Programs/MetaCreations/KPT 6/MetaCreations\xae Technical Support.lnk'
p10
aS'/media/hdb5/Copy of My Documents/NTIrestore/Sengai Stuff/Documents and Settings/Sengai/Start Menu/Programs/MetaCreations/KPT 6/Uninstall KPT\xae 6.lnk'
p11
aS"/media/hdb5/Copy of My Documents/NTIrestore/Sengai Stuff/Documents and Settings/Sengai/Start Menu/Programs/Kai's Power Tools 5/Kai's Power Tools\xae5 ReadMe.lnk"
p12
aS"/media/hdb5/Copy of My Documents/NTIrestore/Sengai Stuff/Documents and Settings/Sengai/Start Menu/Programs/Kai's Power Tools 5/Uninstall Kai's Power Tools\xae5.lnk"
p13
aS'/media/hdb5/Copy of My Documents/NTIrestore/Sengai Stuff/Documents and Settings/Sengai/SendTo/3\xbd Floppy (A).lnk'
p14
aS'/media/hdb5/Copy of My Documents/NTIrestore/Sengai Stuff/Documents and Settings/All Users/Start Menu/Programs/MetaCreations/KPT 6/KPT\xae 6 ReadMe.lnk'
p15
aS'/media/hdb5/Copy of My Documents/NTIrestore/Sengai Stuff/Documents and Settings/All Users/Start Menu/Programs/MetaCreations/KPT 6/KPT\xae 6 Technical Tips.lnk'
p16
aS'/media/hdb5/Copy of My Documents/NTIrestore/Sengai Stuff/Documents and Settings/All Users/Start Menu/Programs/MetaCreations/KPT 6/MetaCreations\xae Technical Support.lnk'
p17
aS'/media/hdb5/Copy of My Documents/NTIrestore/Sengai Stuff/Documents and Settings/All Users/Start Menu/Programs/MetaCreations/KPT 6/Uninstall KPT\xae 6.lnk'
p18
aS"/media/hdb5/Copy of My Documents/NTIrestore/Sengai Stuff/Documents and Settings/All Users/Start Menu/Programs/Kai's Power Tools 5/Kai's Power Tools\xae5 ReadMe.lnk"
p19
aS"/media/hdb5/Copy of My Documents/NTIrestore/Sengai Stuff/Documents and Settings/All Users/Start Menu/Programs/Kai's Power Tools 5/Uninstall Kai's Power Tools\xae5.lnk"
p20
aS'/media/hdb5/Copy of My Documents/NTIrestore/Sengai Stuff/Documents and Settings/Administrator/SendTo/3\xbd Floppy (A).lnk'
p21
a.